(ccollections
defaultdict
p1
(c__builtin__
float
p2
tRp3
S'+A'
p4
F0.50898203592814373
sS'-A'
p5
F0.49101796407185627
sg1
(g2
tRp6
S'pre'
p7
F0.12574850299401197
sS'dat'
p8
F0.0059880239520958087
sS'gen'
p9
F0.86826347305389218
sg1
(g2
tRp10
(g5
S'gen'
p11
tp12
F0.41317365269461076
s(g4
g7
tp13
F0.053892215568862277
s(g4
g9
tp14
F0.45508982035928142
s(g5
g7
tp15
F0.071856287425149698
s(g5
g8
tp16
F0.0059880239520958087
sg1
(g2
tRp17
(g11
g5
tp18
F0.84146341463414631
s(g7
g5
tp19
F0.14634146341463414
s(g9
g4
tp20
F0.89411764705882346
s(g7
g4
tp21
F0.10588235294117647
s(g8
g5
tp22
F0.012195121951219513
stp23
.