(ccollections
defaultdict
p1
(c__builtin__
float
p2
tRp3
S'+A'
p4
F0.50595238095238093
sS'-A'
p5
F0.49404761904761907
sg1
(g2
tRp6
(S'gen'
p7
S's'
tp8
F0.6785714285714286
s(S'pre'
p9
S'an'
p10
tp11
F0.0059523809523809521
s(S'gen'
p12
S'OTHER'
p13
tp14
F0.18452380952380953
s(S'rel-pn'
p15
S''
tp16
F0.0059523809523809521
s(g9
S'ute'
p17
tp18
F0.0059523809523809521
s(g9
S'to'
p19
tp20
F0.017857142857142856
s(g9
S'van'
p21
tp22
F0.095238095238095233
s(S'dat'
p23
g13
tp24
F0.0059523809523809521
sg1
(g2
tRp25
(g4
(S'gen'
p26
g13
tp27
tp28
F0.089285714285714288
s(g4
(g9
S'to'
p29
tp30
tp31
F0.0059523809523809521
s(g5
g14
tp32
F0.095238095238095233
s(g4
g11
tp33
F0.0059523809523809521
s(g5
g16
tp34
F0.0059523809523809521
s(g5
(S'gen'
p35
S's'
tp36
tp37
F0.31547619047619047
s(g5
g18
tp38
F0.0059523809523809521
s(g5
g20
tp39
F0.011904761904761904
s(g4
g22
tp40
F0.041666666666666664
s(g5
g24
tp41
F0.0059523809523809521
s(g5
(g9
S'van'
p42
tp43
tp44
F0.053571428571428568
s(g4
g8
tp45
F0.36309523809523808
sg1
(g2
tRp46
(g43
g5
tp47
F0.10843373493975902
s(g20
g5
tp48
F0.024096385542168672
s(g18
g5
tp49
F0.012048192771084336
s(g36
g5
tp50
F0.63855421686746983
s(g30
g4
tp51
F0.011764705882352941
s(g22
g4
tp52
F0.082352941176470587
s(g14
g5
tp53
F0.19277108433734938
s(g11
g4
tp54
F0.011764705882352941
s(g24
g5
tp55
F0.012048192771084336
s(g16
g5
tp56
F0.012048192771084336
s(g8
g4
tp57
F0.71764705882352942
s(g27
g4
tp58
F0.17647058823529413
stp59
.