(ccollections
defaultdict
p1
(c__builtin__
float
p2
tRp3
S'+A'
p4
F0.50898203592814373
sS'-A'
p5
F0.49101796407185627
sg1
(g2
tRp6
(S'dat'
p7
S'OTHER'
p8
tp9
F0.0059880239520958087
s(S'pre'
p10
S''
tp11
F0.12574850299401197
s(S'gen'
p12
S's'
tp13
F0.68263473053892221
s(S'gen'
p14
g8
tp15
F0.18562874251497005
sg1
(g2
tRp16
(g4
(S'gen'
p17
g8
tp18
tp19
F0.089820359281437126
s(g5
g15
tp20
F0.09580838323353294
s(g5
(S'gen'
p21
S's'
tp22
tp23
F0.31736526946107785
s(g5
g9
tp24
F0.0059880239520958087
s(g4
g11
tp25
F0.053892215568862277
s(g5
(g10
S''
tp26
tp27
F0.071856287425149698
s(g4
g13
tp28
F0.3652694610778443
sg1
(g2
tRp29
(g11
g4
tp30
F0.10588235294117647
s(g22
g5
tp31
F0.64634146341463417
s(g15
g5
tp32
F0.1951219512195122
s(g9
g5
tp33
F0.012195121951219513
s(g13
g4
tp34
F0.71764705882352942
s(g26
g5
tp35
F0.14634146341463414
s(g18
g4
tp36
F0.1764705882352941
stp37
.