(ccollections
defaultdict
p1
(c__builtin__
float
p2
tRp3
(S'-A'
p4
S'+A'
p5
S'-ali'
p6
tp7
F0.18902439024390244
s(g5
g4
S'+ali'
p8
tp9
F0.024390243902439025
s(g4
g5
g8
tp10
F0.07926829268292683
s(g5
g5
g6
tp11
F0.10975609756097561
s(g4
g4
g6
tp12
F0.15853658536585366
s(g4
g4
g8
tp13
F0.054878048780487805
s(g5
g5
g8
tp14
F0.024390243902439025
s(g5
g4
g6
tp15
F0.3597560975609756
sg1
(g2
tRp16
(S'pre'
p17
S'ute'
p18
S'order2'
p19
tp20
F0.0060975609756097563
s(S'gen'
p21
S's'
g19
tp22
F0.25
s(g17
S'van'
p23
g19
tp24
F0.097560975609756101
s(g17
S'to'
p25
S'order1'
p26
tp27
F0.012195121951219513
s(g17
S'an'
p28
g19
tp29
F0.0060975609756097563
s(S'gen'
p30
S'OTHER'
p31
g19
tp32
F0.085365853658536592
s(S'gen'
p33
g31
g26
tp34
F0.097560975609756101
s(S'gen'
p35
S's'
g26
tp36
F0.42682926829268292
s(S'rel-pn'
p37
S''
g26
tp38
F0.0060975609756097563
s(g17
S'to'
p39
g19
tp40
F0.0060975609756097563
s(S'dat'
p41
g31
g26
tp42
F0.0060975609756097563
sg1
(g2
tRp43
(g10
g27
tp44
F0.0060975609756097563
s((g5
g4
g6
tp45
g29
tp46
F0.0060975609756097563
s(g7
g24
tp47
F0.03048780487804878
s(g14
(S'gen'
p48
S's'
g19
tp49
tp50
F0.0060975609756097563
s((g4
g5
g8
tp51
(S'gen'
p52
g31
g26
tp53
tp54
F0.0060975609756097563
s((g4
g5
g8
tp55
(S'gen'
p56
S's'
g19
tp57
tp58
F0.012195121951219513
s((g5
g4
g6
tp59
(S'gen'
p60
g31
g19
tp61
tp62
F0.012195121951219513
s((g4
g4
g6
tp63
(S'gen'
p64
S's'
g26
tp65
tp66
F0.018292682926829267
s((g4
g4
g8
tp67
(S'gen'
p68
S's'
g26
tp69
tp70
F0.012195121951219513
s((g4
g4
g6
tp71
(S'gen'
p72
g31
g26
tp73
tp74
F0.012195121951219513
s((g5
g5
g8
tp75
(g17
S'van'
p76
g19
tp77
tp78
F0.0060975609756097563
s((g4
g4
g6
tp79
g32
tp80
F0.04878048780487805
s((g4
g5
g6
tp81
(S'gen'
p82
S's'
g26
tp83
tp84
F0.07926829268292683
s((g4
g4
g6
tp85
g38
tp86
F0.0060975609756097563
s((g5
g5
g6
tp87
(S'gen'
p88
S's'
g26
tp89
tp90
F0.067073170731707321
s((g4
g4
g6
tp91
(S'gen'
p92
S's'
g19
tp93
tp94
F0.042682926829268296
s((g4
g5
g8
tp95
(S'gen'
p96
g31
g19
tp97
tp98
F0.0060975609756097563
s((g4
g4
g8
tp99
(S'gen'
p100
S's'
g19
tp101
tp102
F0.03048780487804878
s((g5
g4
g6
tp103
(S'gen'
p104
S's'
g26
tp105
tp106
F0.17682926829268292
s((g5
g4
g8
tp107
(S'gen'
p108
g31
g19
tp109
tp110
F0.0060975609756097563
s((g5
g4
g6
tp111
(S'gen'
p112
S's'
g19
tp113
tp114
F0.085365853658536592
s(g15
(S'gen'
p115
g31
g26
tp116
tp117
F0.042682926829268296
s((g5
g5
g8
tp118
(S'gen'
p119
S's'
g26
tp120
tp121
F0.012195121951219513
s((g4
g5
g8
tp122
(S'gen'
p123
S's'
g26
tp124
tp125
F0.04878048780487805
s((g4
g5
g6
tp126
(S'gen'
p127
g31
g19
tp128
tp129
F0.012195121951219513
s((g4
g4
g6
tp130
(g17
S'van'
p131
g19
tp132
tp133
F0.012195121951219513
s(g13
(g17
S'van'
p134
g19
tp135
tp136
F0.012195121951219513
s((g5
g4
g6
tp137
(g17
S'van'
p138
g19
tp139
tp140
F0.036585365853658534
s((g4
g5
g6
tp141
(S'gen'
p142
g31
g26
tp143
tp144
F0.0060975609756097563
s((g5
g4
g8
tp145
g40
tp146
F0.0060975609756097563
s(g12
(g17
S'to'
p147
g26
tp148
tp149
F0.0060975609756097563
s((g4
g5
g6
tp150
g22
tp151
F0.06097560975609756
s(g11
g34
tp152
F0.03048780487804878
s(g9
g36
tp153
F0.012195121951219513
s((g4
g4
g6
tp154
g42
tp155
F0.0060975609756097563
s((g5
g5
g6
tp156
(S'gen'
p157
S's'
g19
tp158
tp159
F0.012195121951219513
s((g4
g4
g6
tp160
g20
tp161
F0.0060975609756097563
sg1
(g2
tRp162
(g120
g118
tp163
F0.5
s(g65
g63
tp164
F0.11538461538461538
s(g139
g137
tp165
F0.10169491525423728
s(g73
g71
tp166
F0.076923076923076927
s(g20
g160
tp167
F0.038461538461538464
s(g135
g13
tp168
F0.22222222222222224
s(g32
g79
tp169
F0.30769230769230771
s(g61
g59
tp170
F0.033898305084745763
s(g148
g12
tp171
F0.038461538461538464
s(g53
g51
tp172
F0.076923076923076927
s(g97
g95
tp173
F0.076923076923076927
s(g132
g130
tp174
F0.076923076923076927
s(g40
g145
tp175
F0.25
s(g113
g111
tp176
F0.23728813559322037
s(g36
g9
tp177
F0.5
s(g105
g103
tp178
F0.49152542372881353
s(g101
g99
tp179
F0.55555555555555558
s(g77
g75
tp180
F0.25
s(g143
g141
tp181
F0.032258064516129031
s(g49
g14
tp182
F0.25
s(g57
g55
tp183
F0.15384615384615385
s(g93
g91
tp184
F0.26923076923076927
s(g69
g67
tp185
F0.22222222222222224
s(g42
g154
tp186
F0.038461538461538464
s(g24
g7
tp187
F0.16129032258064516
s(g89
g87
tp188
F0.61111111111111116
s(g38
g85
tp189
F0.038461538461538464
s(g22
g150
tp190
F0.32258064516129031
s(g158
g156
tp191
F0.11111111111111112
s(g83
g81
tp192
F0.41935483870967744
s(g27
g10
tp193
F0.076923076923076927
s(g128
g126
tp194
F0.064516129032258063
s(g116
g15
tp195
F0.11864406779661019
s(g109
g107
tp196
F0.25
s(g124
g122
tp197
F0.61538461538461542
s(g34
g11
tp198
F0.27777777777777779
s(g29
g45
tp199
F0.016949152542372881
stp200
.