(ccollections
defaultdict
p1
(c__builtin__
float
p2
tRp3
S'pre'
p4
F0.42744628090992332
sS'+A+PN'
p5
F0.097051152539854538
sS'+A'
p6
F0.35739472046422627
sS'verb'
p7
F0.038002132878496887
sS'-A'
p8
F0.080105713207498985
sg1
(g2
tRp9
(S'gen'
p10
S'OTHER'
p11
tp12
F0.16106433727050207
s(g4
S''
tp13
F0.16291318969879082
s(g10
S's'
tp14
F0.21969814227522644
s(g10
S'r'
tp15
F0.13711418597342348
s(S'dat'
p16
S'EMPTY'
p17
tp18
F0.046680193215440619
s(g16
S'i'
tp19
F0.14744283559044624
s(g16
g11
tp20
F0.12508711597617031
sg1
(g2
tRp21
(g6
(S'gen'
p22
S'r'
tp23
tp24
F0.072403240783701001
s(g8
(S'gen'
p25
g11
tp26
tp27
F0.029269395210432324
s(g5
(S'gen'
p28
g11
tp29
tp30
F0.024647911756153534
s(g7
(g16
g11
tp31
tp32
F0.0032963676951525077
s(g4
g12
tp33
F0.032465012290372339
s(g6
(g4
S''
tp34
tp35
F0.11091560290269091
s(g7
g19
tp36
F0.003108558926666412
s(g8
(S'gen'
p37
S'r'
tp38
tp39
F0.0061619779390383834
s(g7
(g16
g17
tp40
tp41
F0.00055047397659717715
s(g4
g20
tp42
F0.1217907482810178
s(g8
(S'gen'
p43
S's'
tp44
tp45
F0.027728900725672728
s(g4
(g10
S'r'
tp46
tp47
F0.030308449534997516
s(S'+A+PN'
p48
(S'gen'
p49
S's'
tp50
tp51
F0.038512362118989896
s(g7
g13
tp52
F0.028890169524705966
s(g8
(g4
S''
tp53
tp54
F0.016945439332355552
s(g4
g14
tp55
F0.052418074900912368
s(g7
g15
tp56
F0.00051161699001384695
s(g7
(g10
S's'
tp57
tp58
F0.0009066630202777035
s(S'+A+PN'
p59
(g4
S''
tp60
tp61
F0.0061619779390383834
s(g6
(S'gen'
p62
g11
tp63
tp64
F0.073943735268460598
s(S'+A+PN'
p65
(S'gen'
p66
S'r'
tp67
tp68
F0.027728900725672728
s(g7
(g10
g11
tp69
tp70
F0.00073828274508327279
s(g4
(g16
S'i'
tp71
tp72
F0.14433427666377985
s(g4
g18
tp73
F0.046129719238843445
s(g6
(S'gen'
p74
S's'
tp75
tp76
F0.10013214150937373
sg1
(g2
tRp77
(g34
g6
tp78
F0.31034482758620691
s(g20
g4
tp79
F0.28492644273745132
s(g29
g5
tp80
F0.25396825396825395
s(g71
g4
tp81
F0.33766646970592246
s(g50
g48
tp82
F0.3968253968253968
s(g19
g7
tp83
F0.081799591002044994
s(g63
g6
tp84
F0.2068965517241379
s(g14
g4
tp85
F0.12263078950956774
s(g18
g4
tp86
F0.10791933699983335
s(g44
g8
tp87
F0.3461538461538462
s(g67
g65
tp88
F0.28571428571428575
s(g40
g7
tp89
F0.014485344239945467
s(g53
g8
tp90
F0.21153846153846151
s(g60
g59
tp91
F0.063492063492063489
s(g46
g4
tp92
F0.070905867915094761
s(g38
g8
tp93
F0.076923076923076927
s(g15
g7
tp94
F0.013462849352419903
s(g13
g7
tp95
F0.7602249488752556
s(g75
g6
tp96
F0.28017241379310343
s(g12
g4
tp97
F0.07595109313213036
s(g57
g7
tp98
F0.023858214042263123
s(g26
g8
tp99
F0.36538461538461542
s(g69
g7
tp100
F0.019427402862985683
s(g31
g7
tp101
F0.08674164962508521
s(g23
g6
tp102
F0.20258620689655168
stp103
.