(ccollections
defaultdict
p1
(c__builtin__
float
p2
tRp3
S'pre'
p4
F0.42744628090992332
sS'+A+PN'
p5
F0.097051152539854538
sS'+A'
p6
F0.35739472046422627
sS'verb'
p7
F0.038002132878496887
sS'-A'
p8
F0.080105713207498985
sg1
(g2
tRp9
S'dat'
p10
F0.31921014478205717
sg4
F0.16291318969879082
sS'gen'
p11
F0.5178766655191519
sg1
(g2
tRp12
(g8
S'gen'
p13
tp14
F0.063160273875143419
s(g6
S'gen'
p15
tp16
F0.24647911756153532
s(g5
S'gen'
p17
tp18
F0.090889174600816136
s(g7
g11
tp19
F0.0021565627553748229
s(g7
g10
tp20
F0.0069554005984160949
s(g6
g4
tp21
F0.1109156029026909
s(g4
g10
tp22
F0.31225474418364102
s(g7
g4
tp23
F0.02889016952470596
s(S'+A+PN'
p24
g4
tp25
F0.0061619779390383825
s(g4
g11
tp26
F0.1151915367262822
s(g8
g4
tp27
F0.016945439332355549
sg1
(g2
tRp28
(g11
g7
tp29
F0.056748466257668703
s(g4
g7
tp30
F0.76022494887525538
s(g4
g24
tp31
F0.063492063492063489
s(g11
g4
tp32
F0.2694877505567928
s(g10
g4
tp33
F0.73051224944320692
s(g15
g6
tp34
F0.68965517241379304
s(g17
g5
tp35
F0.93650793650793629
s(g4
g8
tp36
F0.21153846153846148
s(g13
g8
tp37
F0.78846153846153832
s(g10
g7
tp38
F0.1830265848670756
s(g4
g6
tp39
F0.31034482758620685
stp40
.